; Function Attrs: mustprogress uwtable
define void @_ZN19QualityMapperDialog17on_TfHandle_movedEP8TFHandle(ptr noundef nonnull align 8 dereferenceable(824) %0, ptr noundef nonnull %1) local_unnamed_addr #9 align 2 {
  %3 = tail call noundef zeroext i1 @_ZN7QObject12blockSignalsEb(ptr noundef nonnull align 8 dereferenceable(16) %1, i1 noundef zeroext true) #23
  %4 = getelementptr inbounds i8, ptr %0, i64 200
  %5 = load ptr, ptr %4, align 8
  %6 = tail call noundef zeroext i1 @_ZN7QObject12blockSignalsEb(ptr noundef nonnull align 8 dereferenceable(16) %5, i1 noundef zeroext true) #23
  %7 = load ptr, ptr %4, align 8
  %8 = getelementptr inbounds i8, ptr %1, i64 72
  %9 = load ptr, ptr %8, align 8
  %10 = load float, ptr %9, align 4
  %11 = fpext float %10 to double
  tail call void @_ZN14QDoubleSpinBox8setValueEd(ptr noundef nonnull align 8 dereferenceable(48) %7, double noundef %11)
  %12 = load ptr, ptr %4, align 8
  %13 = tail call noundef zeroext i1 @_ZN7QObject12blockSignalsEb(ptr noundef nonnull align 8 dereferenceable(16) %12, i1 noundef zeroext false) #23
  %14 = getelementptr inbounds i8, ptr %0, i64 216
  %15 = load ptr, ptr %14, align 8
  %16 = tail call noundef zeroext i1 @_ZN7QObject12blockSignalsEb(ptr noundef nonnull align 8 dereferenceable(16) %15, i1 noundef zeroext true) #23
  %17 = load ptr, ptr %14, align 8
  %18 = load ptr, ptr %8, align 8
  %19 = getelementptr inbounds i8, ptr %18, i64 4
  %20 = load float, ptr %19, align 4
  %21 = fpext float %20 to double
  tail call void @_ZN14QDoubleSpinBox8setValueEd(ptr noundef nonnull align 8 dereferenceable(48) %17, double noundef %21)
  %22 = load ptr, ptr %14, align 8
  %23 = tail call noundef zeroext i1 @_ZN7QObject12blockSignalsEb(ptr noundef nonnull align 8 dereferenceable(16) %22, i1 noundef zeroext false) #23
  tail call void @_ZN19QualityMapperDialog21manageBorderTfHandlesEP8TFHandle(ptr noundef nonnull align 8 dereferenceable(824) %0, ptr noundef nonnull %1)
  %24 = getelementptr inbounds i8, ptr %1, i64 64
  %25 = load i32, ptr %24, align 8
  tail call void @_ZN19QualityMapperDialog20updateTfHandlesOrderEi(ptr noundef nonnull align 8 dereferenceable(824) %0, i32 noundef %25)
  tail call void @_ZN19QualityMapperDialog20drawTransferFunctionEv(ptr noundef nonnull align 8 dereferenceable(824) %0)
  %26 = tail call noundef zeroext i1 @_ZN7QObject12blockSignalsEb(ptr noundef nonnull align 8 dereferenceable(16) %1, i1 noundef zeroext false) #23
  %27 = load ptr, ptr %8, align 8
  %28 = load float, ptr %27, align 4
  tail call void @_ZN19QualityMapperDialog19updateXQualityLabelEf(ptr noundef nonnull align 8 dereferenceable(824) %0, float noundef %28)
  ret void
}